target datalayout = "e-m:e-p270:32:32-p271:32:32-p272:64:64-i64:64-i128:128-f80:128-n8:16:32:64-S128"
target triple = "x86_64-pc-linux-gnu"

%struct.expert_field = type { i32, i32 }
%struct._packet_info = type { ptr, ptr, i32, i32, %struct.nstime_t, %struct.nstime_t, %struct.nstime_t, i8, ptr, ptr, ptr, ptr, %struct._address, %struct._address, %struct._address, %struct._address, %struct._address, %struct._address, i32, ptr, i8, [3 x i8], %struct.anon, i32, i32, i32, i32, ptr, i8, ptr, ptr, i16, i16, i32, i32, i16, i32, i32, ptr, ptr, ptr, i8, i8, i16, i16, i16, i32, i16, i16, ptr, ptr, ptr, ptr, ptr, i32, i32 }
%struct.nstime_t = type { i64, i32 }
%struct._address = type { i32, i32, ptr, ptr }
%struct.anon = type { i8, [3 x i8] }

@hf_gsm_a_spare_bits = external global i32, align 4
@ett_gsm_dtap_elem = hidden global [97 x i32] zeroinitializer, align 16
@hf_gsm_a_dtap_serv_cat_b5 = internal global i32 0, align 4
@hf_gsm_a_dtap_serv_cat_b4 = internal global i32 0, align 4
@hf_gsm_a_dtap_serv_cat_b3 = internal global i32 0, align 4
@hf_gsm_a_dtap_serv_cat_b2 = internal global i32 0, align 4
@hf_gsm_a_dtap_serv_cat_b1 = internal global i32 0, align 4
@hf_gsm_a_dtap_emerg_num_info_length = internal global i32 0, align 4
@hf_gsm_a_dtap_emergency_bcd_num = internal global i32 0, align 4
@hf_gsm_a_dtap_emergency_number_information = internal global i32 0, align 4
@ei_gsm_a_dtap_not_digit = internal global %struct.expert_field zeroinitializer, align 4

; Function Attrs: null_pointer_is_valid sspstrong uwtable
define internal zeroext i16 @de_emerg_num_list(ptr noundef %0, ptr noundef %1, ptr noundef %2, i32 noundef %3, i32 noundef %4, ptr noundef %5, i32 noundef %6) #1 {
  %8 = alloca ptr, align 8
  %9 = alloca ptr, align 8
  %10 = alloca ptr, align 8
  %11 = alloca i32, align 4
  %12 = alloca i32, align 4
  %13 = alloca ptr, align 8
  %14 = alloca i32, align 4
  %15 = alloca i32, align 4
  %16 = alloca i8, align 1
  %17 = alloca i8, align 1
  %18 = alloca ptr, align 8
  %19 = alloca ptr, align 8
  %20 = alloca ptr, align 8
  store ptr %0, ptr %8, align 8
  store ptr %1, ptr %9, align 8
  store ptr %2, ptr %10, align 8
  store i32 %3, ptr %11, align 4
  store i32 %4, ptr %12, align 4
  store ptr %5, ptr %13, align 8
  store i32 %6, ptr %14, align 4
  call void @llvm.lifetime.start.p0(i64 4, ptr %15) #7
  call void @llvm.lifetime.start.p0(i64 1, ptr %16) #7
  call void @llvm.lifetime.start.p0(i64 1, ptr %17) #7
  call void @llvm.lifetime.start.p0(i64 8, ptr %18) #7
  call void @llvm.lifetime.start.p0(i64 8, ptr %19) #7
  call void @llvm.lifetime.start.p0(i64 8, ptr %20) #7
  %21 = load i32, ptr %11, align 4
  store i32 %21, ptr %15, align 4
  store i8 1, ptr %17, align 1
  br label %22

22:                                               ; preds = %104, %7
  %23 = load i32, ptr %15, align 4
  %24 = load i32, ptr %11, align 4
  %25 = sub i32 %23, %24
  %26 = load i32, ptr %12, align 4
  %27 = icmp ult i32 %25, %26
  br i1 %27, label %28, label %111

28:                                               ; preds = %22
  %29 = load ptr, ptr %8, align 8
  %30 = load i32, ptr %15, align 4
  %31 = call zeroext i8 @tvb_get_uint8(ptr noundef %29, i32 noundef %30)
  store i8 %31, ptr %16, align 1
  %32 = load ptr, ptr %9, align 8
  %33 = load i32, ptr @hf_gsm_a_dtap_emergency_number_information, align 4
  %34 = load ptr, ptr %8, align 8
  %35 = load i32, ptr %15, align 4
  %36 = load i8, ptr %16, align 1
  %37 = zext i8 %36 to i32
  %38 = add i32 %37, 1
  %39 = load i8, ptr %17, align 1
  %40 = zext i8 %39 to i32
  %41 = call ptr @proto_tree_add_uint(ptr noundef %32, i32 noundef %33, ptr noundef %34, i32 noundef %35, i32 noundef %38, i32 noundef %40)
  store ptr %41, ptr %19, align 8
  %42 = load ptr, ptr %19, align 8
  %43 = load i32, ptr getelementptr ([97 x i32], ptr @ett_gsm_dtap_elem, i64 0, i64 16), align 16
  %44 = call ptr @proto_item_add_subtree(ptr noundef %42, i32 noundef %43)
  store ptr %44, ptr %18, align 8
  %45 = load ptr, ptr %18, align 8
  %46 = load i32, ptr @hf_gsm_a_dtap_emerg_num_info_length, align 4
  %47 = load ptr, ptr %8, align 8
  %48 = load i32, ptr %15, align 4
  %49 = call ptr @proto_tree_add_item(ptr noundef %45, i32 noundef %46, ptr noundef %47, i32 noundef %48, i32 noundef 1, i32 noundef 0)
  %50 = load i32, ptr %15, align 4
  %51 = add i32 %50, 1
  store i32 %51, ptr %15, align 4
  %52 = load ptr, ptr %18, align 8
  %53 = load i32, ptr @hf_gsm_a_spare_bits, align 4
  %54 = load ptr, ptr %8, align 8
  %55 = load i32, ptr %15, align 4
  %56 = shl i32 %55, 3
  %57 = call ptr @proto_tree_add_bits_item(ptr noundef %52, i32 noundef %53, ptr noundef %54, i32 noundef %56, i32 noundef 3, i32 noundef 0)
  %58 = load ptr, ptr %18, align 8
  %59 = load i32, ptr @hf_gsm_a_dtap_serv_cat_b5, align 4
  %60 = load ptr, ptr %8, align 8
  %61 = load i32, ptr %15, align 4
  %62 = call ptr @proto_tree_add_item(ptr noundef %58, i32 noundef %59, ptr noundef %60, i32 noundef %61, i32 noundef 1, i32 noundef 0)
  %63 = load ptr, ptr %18, align 8
  %64 = load i32, ptr @hf_gsm_a_dtap_serv_cat_b4, align 4
  %65 = load ptr, ptr %8, align 8
  %66 = load i32, ptr %15, align 4
  %67 = call ptr @proto_tree_add_item(ptr noundef %63, i32 noundef %64, ptr noundef %65, i32 noundef %66, i32 noundef 1, i32 noundef 0)
  %68 = load ptr, ptr %18, align 8
  %69 = load i32, ptr @hf_gsm_a_dtap_serv_cat_b3, align 4
  %70 = load ptr, ptr %8, align 8
  %71 = load i32, ptr %15, align 4
  %72 = call ptr @proto_tree_add_item(ptr noundef %68, i32 noundef %69, ptr noundef %70, i32 noundef %71, i32 noundef 1, i32 noundef 0)
  %73 = load ptr, ptr %18, align 8
  %74 = load i32, ptr @hf_gsm_a_dtap_serv_cat_b2, align 4
  %75 = load ptr, ptr %8, align 8
  %76 = load i32, ptr %15, align 4
  %77 = call ptr @proto_tree_add_item(ptr noundef %73, i32 noundef %74, ptr noundef %75, i32 noundef %76, i32 noundef 1, i32 noundef 0)
  %78 = load ptr, ptr %18, align 8
  %79 = load i32, ptr @hf_gsm_a_dtap_serv_cat_b1, align 4
  %80 = load ptr, ptr %8, align 8
  %81 = load i32, ptr %15, align 4
  %82 = call ptr @proto_tree_add_item(ptr noundef %78, i32 noundef %79, ptr noundef %80, i32 noundef %81, i32 noundef 1, i32 noundef 0)
  %83 = load i32, ptr %15, align 4
  %84 = add i32 %83, 1
  store i32 %84, ptr %15, align 4
  %85 = load i8, ptr %16, align 1
  %86 = add i8 %85, -1
  store i8 %86, ptr %16, align 1
  %87 = load ptr, ptr %18, align 8
  %88 = load i32, ptr @hf_gsm_a_dtap_emergency_bcd_num, align 4
  %89 = load ptr, ptr %8, align 8
  %90 = load i32, ptr %15, align 4
  %91 = load i8, ptr %16, align 1
  %92 = zext i8 %91 to i32
  %93 = load ptr, ptr %10, align 8
  %94 = getelementptr inbounds nuw %struct._packet_info, ptr %93, i32 0, i32 51
  %95 = load ptr, ptr %94, align 8
  %96 = call ptr @proto_tree_add_item_ret_display_string(ptr noundef %87, i32 noundef %88, ptr noundef %89, i32 noundef %90, i32 noundef %92, i32 noundef -2147483580, ptr noundef %95, ptr noundef %20)
  store ptr %96, ptr %19, align 8
  %97 = load ptr, ptr %20, align 8
  %98 = call ptr @strchr(ptr noundef %97, i32 noundef 63) #8
  %99 = icmp ne ptr %98, null
  br i1 %99, label %100, label %104

100:                                              ; preds = %28
  %101 = load ptr, ptr %10, align 8
  %102 = load ptr, ptr %19, align 8
  %103 = call ptr @expert_add_info(ptr noundef %101, ptr noundef %102, ptr noundef @ei_gsm_a_dtap_not_digit)
  br label %104

104:                                              ; preds = %100, %28
  %105 = load i32, ptr %15, align 4
  %106 = load i8, ptr %16, align 1
  %107 = zext i8 %106 to i32
  %108 = add i32 %105, %107
  store i32 %108, ptr %15, align 4
  %109 = load i8, ptr %17, align 1
  %110 = add i8 %109, 1
  store i8 %110, ptr %17, align 1
  br label %22, !llvm.loop !11

111:                                              ; preds = %22
  %112 = load i32, ptr %12, align 4
  %113 = trunc i32 %112 to i16
  call void @llvm.lifetime.end.p0(i64 8, ptr %20) #7
  call void @llvm.lifetime.end.p0(i64 8, ptr %19) #7
  call void @llvm.lifetime.end.p0(i64 8, ptr %18) #7
  call void @llvm.lifetime.end.p0(i64 1, ptr %17) #7
  call void @llvm.lifetime.end.p0(i64 1, ptr %16) #7
  call void @llvm.lifetime.end.p0(i64 4, ptr %15) #7
  ret i16 %113
}