; Function Attrs: null_pointer_is_valid sspstrong uwtable
define internal noundef zeroext i16 @de_emerg_num_list(ptr noundef %0, ptr noundef %1, ptr noundef %2, i32 noundef %3, i32 noundef %4, ptr readnone captures(none) %5, i32 %6) #1 {
  %8 = alloca ptr, align 8
  call void @llvm.lifetime.start.p0(i64 8, ptr nonnull %8) #8
  %.not50 = icmp eq i32 %4, 0
  br i1 %.not50, label %._crit_edge, label %.lr.ph

.lr.ph:                                           ; preds = %7
  %9 = getelementptr inbounds nuw i8, ptr %2, i64 408
  br label %10

10:                                               ; preds = %.lr.ph, %45
  %.049 = phi i32 [ %3, %.lr.ph ], [ %46, %45 ]
  %.04648 = phi i8 [ 1, %.lr.ph ], [ %47, %45 ]
  %11 = call zeroext i8 @tvb_get_uint8(ptr noundef %0, i32 noundef %.049)
  %12 = load i32, ptr @hf_gsm_a_dtap_emergency_number_information, align 4
  %13 = zext i8 %11 to i32
  %14 = add nuw nsw i32 %13, 1
  %15 = zext i8 %.04648 to i32
  %16 = call ptr @proto_tree_add_uint(ptr noundef %1, i32 noundef %12, ptr noundef %0, i32 noundef %.049, i32 noundef %14, i32 noundef %15)
  %17 = load i32, ptr getelementptr inbounds nuw (i8, ptr @ett_gsm_dtap_elem, i64 64), align 16
  %18 = call ptr @proto_item_add_subtree(ptr noundef %16, i32 noundef %17)
  %19 = load i32, ptr @hf_gsm_a_dtap_emerg_num_info_length, align 4
  %20 = call ptr @proto_tree_add_item(ptr noundef %18, i32 noundef %19, ptr noundef %0, i32 noundef %.049, i32 noundef 1, i32 noundef 0)
  %21 = add i32 %.049, 1
  %22 = load i32, ptr @hf_gsm_a_spare_bits, align 4
  %23 = shl i32 %21, 3
  %24 = call ptr @proto_tree_add_bits_item(ptr noundef %18, i32 noundef %22, ptr noundef %0, i32 noundef %23, i32 noundef 3, i32 noundef 0)
  %25 = load i32, ptr @hf_gsm_a_dtap_serv_cat_b5, align 4
  %26 = call ptr @proto_tree_add_item(ptr noundef %18, i32 noundef %25, ptr noundef %0, i32 noundef %21, i32 noundef 1, i32 noundef 0)
  %27 = load i32, ptr @hf_gsm_a_dtap_serv_cat_b4, align 4
  %28 = call ptr @proto_tree_add_item(ptr noundef %18, i32 noundef %27, ptr noundef %0, i32 noundef %21, i32 noundef 1, i32 noundef 0)
  %29 = load i32, ptr @hf_gsm_a_dtap_serv_cat_b3, align 4
  %30 = call ptr @proto_tree_add_item(ptr noundef %18, i32 noundef %29, ptr noundef %0, i32 noundef %21, i32 noundef 1, i32 noundef 0)
  %31 = load i32, ptr @hf_gsm_a_dtap_serv_cat_b2, align 4
  %32 = call ptr @proto_tree_add_item(ptr noundef %18, i32 noundef %31, ptr noundef %0, i32 noundef %21, i32 noundef 1, i32 noundef 0)
  %33 = load i32, ptr @hf_gsm_a_dtap_serv_cat_b1, align 4
  %34 = call ptr @proto_tree_add_item(ptr noundef %18, i32 noundef %33, ptr noundef %0, i32 noundef %21, i32 noundef 1, i32 noundef 0)
  %35 = add i32 %.049, 2
  %36 = add i8 %11, -1
  %37 = load i32, ptr @hf_gsm_a_dtap_emergency_bcd_num, align 4
  %38 = zext i8 %36 to i32
  %39 = load ptr, ptr %9, align 8
  %40 = call ptr @proto_tree_add_item_ret_display_string(ptr noundef %18, i32 noundef %37, ptr noundef %0, i32 noundef %35, i32 noundef %38, i32 noundef -2147483580, ptr noundef %39, ptr noundef nonnull %8)
  %41 = load ptr, ptr %8, align 8
  %42 = call ptr @strchr(ptr noundef %41, i32 noundef 63) #9
  %.not = icmp eq ptr %42, null
  br i1 %.not, label %45, label %43

43:                                               ; preds = %10
  %44 = call ptr @expert_add_info(ptr noundef %2, ptr noundef %40, ptr noundef nonnull @ei_gsm_a_dtap_not_digit)
  br label %45

45:                                               ; preds = %43, %10
  %46 = add i32 %35, %38
  %47 = add i8 %.04648, 1
  %48 = sub i32 %46, %3
  %49 = icmp ult i32 %48, %4
  br i1 %49, label %10, label %._crit_edge, !llvm.loop !9

._crit_edge:                                      ; preds = %45, %7
  %50 = trunc i32 %4 to i16
  call void @llvm.lifetime.end.p0(i64 8, ptr nonnull %8) #8
  ret i16 %50
}